; Function Attrs: nounwind uwtable
define ptr @l_Array_foldlMUnsafe_fold___at_Lake_Package_mkLeanConfig___spec__8___boxed(ptr noundef %0, ptr noundef %1, ptr noundef %2, ptr noundef %3, ptr noundef %4, ptr noundef %5) local_unnamed_addr #0 {
  %7 = getelementptr i8, ptr %3, i64 8
  %.val25 = load i64, ptr %7, align 8, !tbaa !4
  %8 = ptrtoint ptr %3 to i64
  %9 = and i64 %8, 1
  %.not = icmp eq i64 %9, 0
  br i1 %.not, label %10, label %lean_dec.exit16

10:                                               ; preds = %6
  %11 = load i32, ptr %3, align 4, !tbaa !8
  %12 = icmp sgt i32 %11, 1
  br i1 %12, label %13, label %15, !prof !11

13:                                               ; preds = %10
  %14 = add nsw i32 %11, -1
  store i32 %14, ptr %3, align 4, !tbaa !8
  br label %lean_dec.exit16

15:                                               ; preds = %10
  %.not.i = icmp eq i32 %11, 0
  br i1 %.not.i, label %lean_dec.exit16, label %16

16:                                               ; preds = %15
  tail call void @lean_dec_ref_cold(ptr noundef nonnull %3) #6
  br label %lean_dec.exit16

lean_dec.exit16:                                  ; preds = %16, %15, %13, %6
  %17 = getelementptr i8, ptr %4, i64 8
  %.val = load i64, ptr %17, align 8, !tbaa !4
  %18 = ptrtoint ptr %4 to i64
  %19 = and i64 %18, 1
  %.not26 = icmp eq i64 %19, 0
  br i1 %.not26, label %20, label %lean_dec.exit15

20:                                               ; preds = %lean_dec.exit16
  %21 = load i32, ptr %4, align 4, !tbaa !8
  %22 = icmp sgt i32 %21, 1
  br i1 %22, label %23, label %25, !prof !11

23:                                               ; preds = %20
  %24 = add nsw i32 %21, -1
  store i32 %24, ptr %4, align 4, !tbaa !8
  br label %lean_dec.exit15

25:                                               ; preds = %20
  %.not.i17 = icmp eq i32 %21, 0
  br i1 %.not.i17, label %lean_dec.exit15, label %26

26:                                               ; preds = %25
  tail call void @lean_dec_ref_cold(ptr noundef nonnull %4) #6
  br label %lean_dec.exit15

lean_dec.exit15:                                  ; preds = %26, %25, %23, %lean_dec.exit16
  %27 = tail call ptr @l_Array_foldlMUnsafe_fold___at_Lake_Package_mkLeanConfig___spec__8(ptr poison, ptr noundef %1, ptr noundef %2, i64 noundef %.val25, i64 noundef %.val, ptr noundef %5)
  %28 = ptrtoint ptr %2 to i64
  %29 = and i64 %28, 1
  %.not27 = icmp eq i64 %29, 0
  br i1 %.not27, label %30, label %lean_dec.exit14

30:                                               ; preds = %lean_dec.exit15
  %31 = load i32, ptr %2, align 4, !tbaa !8
  %32 = icmp sgt i32 %31, 1
  br i1 %32, label %33, label %35, !prof !11

33:                                               ; preds = %30
  %34 = add nsw i32 %31, -1
  store i32 %34, ptr %2, align 4, !tbaa !8
  br label %lean_dec.exit14

35:                                               ; preds = %30
  %.not.i19 = icmp eq i32 %31, 0
  br i1 %.not.i19, label %lean_dec.exit14, label %36

36:                                               ; preds = %35
  tail call void @lean_dec_ref_cold(ptr noundef nonnull %2) #6
  br label %lean_dec.exit14

lean_dec.exit14:                                  ; preds = %36, %35, %33, %lean_dec.exit15
  %37 = ptrtoint ptr %1 to i64
  %38 = and i64 %37, 1
  %.not28 = icmp eq i64 %38, 0
  br i1 %.not28, label %39, label %lean_dec.exit13

39:                                               ; preds = %lean_dec.exit14
  %40 = load i32, ptr %1, align 4, !tbaa !8
  %41 = icmp sgt i32 %40, 1
  br i1 %41, label %42, label %44, !prof !11

42:                                               ; preds = %39
  %43 = add nsw i32 %40, -1
  store i32 %43, ptr %1, align 4, !tbaa !8
  br label %lean_dec.exit13

44:                                               ; preds = %39
  %.not.i21 = icmp eq i32 %40, 0
  br i1 %.not.i21, label %lean_dec.exit13, label %45

45:                                               ; preds = %44
  tail call void @lean_dec_ref_cold(ptr noundef nonnull %1) #6
  br label %lean_dec.exit13

lean_dec.exit13:                                  ; preds = %45, %44, %42, %lean_dec.exit14
  %46 = ptrtoint ptr %0 to i64
  %47 = and i64 %46, 1
  %.not29 = icmp eq i64 %47, 0
  br i1 %.not29, label %48, label %lean_dec.exit

48:                                               ; preds = %lean_dec.exit13
  %49 = load i32, ptr %0, align 4, !tbaa !8
  %50 = icmp sgt i32 %49, 1
  br i1 %50, label %51, label %53, !prof !11

51:                                               ; preds = %48
  %52 = add nsw i32 %49, -1
  store i32 %52, ptr %0, align 4, !tbaa !8
  br label %lean_dec.exit

53:                                               ; preds = %48
  %.not.i23 = icmp eq i32 %49, 0
  br i1 %.not.i23, label %lean_dec.exit, label %54

54:                                               ; preds = %53
  tail call void @lean_dec_ref_cold(ptr noundef nonnull %0) #6
  br label %lean_dec.exit

lean_dec.exit:                                    ; preds = %54, %53, %51, %lean_dec.exit13
  ret ptr %27
}